; Function Attrs: mustprogress nofree norecurse nosync nounwind willreturn memory(read, inaccessiblemem: none) uwtable
define dso_local noundef ptr @_ZN5draco10PlyEncoder20GetAttributeDataTypeEi(ptr noundef nonnull readonly align 8 captures(none) dereferenceable(24) %0, i32 noundef %1) local_unnamed_addr #7 align 2 {
  %3 = getelementptr inbounds nuw i8, ptr %0, i64 8
  %4 = load ptr, ptr %3, align 8, !tbaa !9
  %5 = getelementptr inbounds nuw i8, ptr %4, i64 16
  %6 = sext i32 %1 to i64
  %7 = load ptr, ptr %5, align 8, !tbaa !64
  %8 = getelementptr inbounds nuw %"class.std::unique_ptr.62", ptr %7, i64 %6
  %9 = load ptr, ptr %8, align 8, !tbaa !65
  %10 = getelementptr inbounds nuw i8, ptr %9, i64 28
  %11 = load i32, ptr %10, align 4, !tbaa !73
  switch i32 %11, label %14 [
    i32 9, label %15
    i32 2, label %12
    i32 5, label %13
  ]

12:                                               ; preds = %2
  br label %15

13:                                               ; preds = %2
  br label %15

14:                                               ; preds = %2
  br label %15

15:                                               ; preds = %2, %14, %13, %12
  %.0 = phi ptr [ null, %14 ], [ @.str.21, %13 ], [ @.str.20, %12 ], [ @.str.19, %2 ]
  ret ptr %.0
}